target datalayout = "e-m:e-p270:32:32-p271:32:32-p272:64:64-i64:64-i128:128-f80:128-n8:16:32:64-S128"
target triple = "x86_64-pc-linux-gnu"

@.str.1 = private unnamed_addr constant [10 x i8] c"GIT_PAGER\00", align 1
@pager_program = internal global ptr null, align 8
@.str.2 = private unnamed_addr constant [6 x i8] c"PAGER\00", align 1
@.str.3 = private unnamed_addr constant [5 x i8] c"less\00", align 1
@.str.4 = private unnamed_addr constant [4 x i8] c"cat\00", align 1

; Function Attrs: nounwind uwtable
define dso_local ptr @git_pager(ptr noundef %0, i32 noundef %1) #0 {
  %3 = alloca ptr, align 8
  %4 = alloca ptr, align 8
  %5 = alloca i32, align 4
  %6 = alloca ptr, align 8
  %7 = alloca i32, align 4
  store ptr %0, ptr %4, align 8, !tbaa !11
  store i32 %1, ptr %5, align 4, !tbaa !4
  call void @llvm.lifetime.start.p0(i64 8, ptr %6) #8
  %8 = load i32, ptr %5, align 4, !tbaa !4
  %9 = icmp ne i32 %8, 0
  br i1 %9, label %11, label %10

10:                                               ; preds = %2
  store ptr null, ptr %3, align 8
  store i32 1, ptr %7, align 4
  br label %42

11:                                               ; preds = %2
  %12 = call ptr @getenv(ptr noundef @.str.1) #8
  store ptr %12, ptr %6, align 8, !tbaa !13
  %13 = load ptr, ptr %6, align 8, !tbaa !13
  %14 = icmp ne ptr %13, null
  br i1 %14, label %22, label %15

15:                                               ; preds = %11
  %16 = load ptr, ptr @pager_program, align 8, !tbaa !13
  %17 = icmp ne ptr %16, null
  br i1 %17, label %20, label %18

18:                                               ; preds = %15
  %19 = load ptr, ptr %4, align 8, !tbaa !11
  call void @read_early_config(ptr noundef %19, ptr noundef @core_pager_config, ptr noundef null)
  br label %20

20:                                               ; preds = %18, %15
  %21 = load ptr, ptr @pager_program, align 8, !tbaa !13
  store ptr %21, ptr %6, align 8, !tbaa !13
  br label %22

22:                                               ; preds = %20, %11
  %23 = load ptr, ptr %6, align 8, !tbaa !13
  %24 = icmp ne ptr %23, null
  br i1 %24, label %27, label %25

25:                                               ; preds = %22
  %26 = call ptr @getenv(ptr noundef @.str.2) #8
  store ptr %26, ptr %6, align 8, !tbaa !13
  br label %27

27:                                               ; preds = %25, %22
  %28 = load ptr, ptr %6, align 8, !tbaa !13
  %29 = icmp ne ptr %28, null
  br i1 %29, label %31, label %30

30:                                               ; preds = %27
  store ptr @.str.3, ptr %6, align 8, !tbaa !13
  br label %31

31:                                               ; preds = %30, %27
  %32 = load ptr, ptr %6, align 8, !tbaa !13
  %33 = load i8, ptr %32, align 1, !tbaa !15
  %34 = icmp ne i8 %33, 0
  br i1 %34, label %35, label %39

35:                                               ; preds = %31
  %36 = load ptr, ptr %6, align 8, !tbaa !13
  %37 = call i32 @strcmp(ptr noundef %36, ptr noundef @.str.4) #9
  %38 = icmp ne i32 %37, 0
  br i1 %38, label %40, label %39

39:                                               ; preds = %35, %31
  store ptr null, ptr %6, align 8, !tbaa !13
  br label %40

40:                                               ; preds = %39, %35
  %41 = load ptr, ptr %6, align 8, !tbaa !13
  store ptr %41, ptr %3, align 8
  store i32 1, ptr %7, align 4
  br label %42

42:                                               ; preds = %40, %10
  call void @llvm.lifetime.end.p0(i64 8, ptr %6) #8
  %43 = load ptr, ptr %3, align 8
  ret ptr %43
}