; Function Attrs: nounwind uwtable
define dso_local noundef ptr @git_pager(ptr noundef %0, i32 noundef %1) local_unnamed_addr #0 {
  %.not = icmp eq i32 %1, 0
  br i1 %.not, label %14, label %3

3:                                                ; preds = %2
  %4 = tail call ptr @getenv(ptr noundef nonnull @.str.1) #12
  %.not10 = icmp eq ptr %4, null
  br i1 %.not10, label %5, label %.thread

5:                                                ; preds = %3
  %6 = load ptr, ptr @pager_program, align 8, !tbaa !11
  %.not11 = icmp eq ptr %6, null
  br i1 %.not11, label %7, label %.thread

7:                                                ; preds = %5
  tail call void @read_early_config(ptr noundef %0, ptr noundef nonnull @core_pager_config, ptr noundef null) #12
  %.pr = load ptr, ptr @pager_program, align 8, !tbaa !11
  %.not12 = icmp eq ptr %.pr, null
  br i1 %.not12, label %8, label %.thread

8:                                                ; preds = %7
  %9 = tail call ptr @getenv(ptr noundef nonnull @.str.2) #12
  br label %.thread

.thread:                                          ; preds = %5, %3, %8, %7
  %.1 = phi ptr [ %.pr, %7 ], [ %9, %8 ], [ %4, %3 ], [ %6, %5 ]
  %.not13 = icmp eq ptr %.1, null
  %spec.store.select = select i1 %.not13, ptr @.str.3, ptr %.1
  %10 = load i8, ptr %spec.store.select, align 1, !tbaa !13
  %.not14 = icmp eq i8 %10, 0
  br i1 %.not14, label %13, label %11

11:                                               ; preds = %.thread
  %12 = tail call i32 @strcmp(ptr noundef nonnull dereferenceable(1) %spec.store.select, ptr noundef nonnull dereferenceable(4) @.str.4) #13
  %.not15 = icmp eq i32 %12, 0
  br i1 %.not15, label %13, label %14

13:                                               ; preds = %11, %.thread
  br label %14

14:                                               ; preds = %11, %13, %2
  %.08 = phi ptr [ null, %2 ], [ %spec.store.select, %11 ], [ null, %13 ]
  ret ptr %.08
}